(dp1
S'sort_id'
p2
NsS'sort_order'
p3
NsS'columns'
p4
(dp5
S'Progression'
p6
(dp7
S'position'
p8
I3
sS'width'
p9
I152
ssS'Adresse'
p10
(dp11
g8
I1
sg9
I100
ssS'Client'
p12
(dp13
g8
I2
sg9
I100
ssS'Vitesse de r\xc3\xa9ception'
p14
(dp15
g8
I4
sg9
I132
ssN(dp16
g8
I0
sg9
I20
ssS"Vitesse d'envoi"
p17
(dp18
g8
I5
sg9
I1400
sss.